; Function Attrs: cold mustprogress noreturn uwtable
define void @_ZN8nanobind6detail16raise_type_errorEPKcz(ptr noundef readonly captures(none) %0, ...) local_unnamed_addr #0 personality ptr @__gxx_personality_v0 {
  %2 = alloca [1 x %struct.__va_list_tag], align 16
  %3 = alloca %"class.nanobind::builtin_exception", align 8
  call void @llvm.lifetime.start.p0(i64 24, ptr nonnull %2) #27
  call void @llvm.va_start.p0(ptr nonnull %2)
  call void @llvm.lifetime.start.p0(i64 24, ptr nonnull %3) #27
  call fastcc void @_ZN8nanobind6detailL16create_exceptionENS_14exception_typeEPKcP13__va_list_tag(ptr dead_on_unwind noalias writable align 8 %3, i32 noundef 5, ptr noundef %0, ptr noundef %2)
  call void @llvm.va_end.p0(ptr nonnull %2)
  %4 = call ptr @__cxa_allocate_exception(i64 24) #27
  call void @_ZNSt13runtime_errorC2EOS_(ptr noundef nonnull align 8 dereferenceable(20) %4, ptr noundef nonnull align 8 dereferenceable(20) %3) #27
  store ptr getelementptr inbounds nuw inrange(-16, 24) (i8, ptr @_ZTVN8nanobind17builtin_exceptionE, i64 16), ptr %4, align 8
  %5 = getelementptr inbounds nuw i8, ptr %4, i64 16
  %6 = getelementptr inbounds nuw i8, ptr %3, i64 16
  %7 = load i32, ptr %6, align 8
  store i32 %7, ptr %5, align 8
  invoke void @__cxa_throw(ptr nonnull %4, ptr nonnull @_ZTIN8nanobind17builtin_exceptionE, ptr nonnull @_ZN8nanobind17builtin_exceptionD1Ev) #28
          to label %10 unwind label %8

8:                                                ; preds = %1
  %9 = landingpad { ptr, i32 }
          cleanup
  call void @_ZN8nanobind17builtin_exceptionD1Ev(ptr noundef nonnull align 8 dereferenceable(20) %3) #27
  call void @llvm.lifetime.end.p0(i64 24, ptr nonnull %3) #27
  call void @llvm.lifetime.end.p0(i64 24, ptr nonnull %2) #27
  resume { ptr, i32 } %9

10:                                               ; preds = %1
  unreachable
}